; Function Attrs: nounwind uwtable
define void @lv_text_cut(ptr noundef %0, i32 noundef %1, i32 noundef %2) local_unnamed_addr #2 {
  %4 = icmp eq ptr %0, null
  br i1 %4, label %.loopexit, label %5

5:                                                ; preds = %3
  %6 = tail call i64 @lv_strlen(ptr noundef nonnull %0) #11
  %.not16.i = icmp eq i32 %1, 0
  br i1 %.not16.i, label %lv_text_utf8_get_byte_id.exit, label %.lr.ph.i

.lr.ph.i:                                         ; preds = %5, %lv_text_utf8_size.exit.i
  %.013.i = phi i32 [ %24, %lv_text_utf8_size.exit.i ], [ 0, %5 ]
  %.01012.i = phi i32 [ %23, %lv_text_utf8_size.exit.i ], [ 0, %5 ]
  %7 = zext i32 %.01012.i to i64
  %8 = getelementptr inbounds nuw i8, ptr %0, i64 %7
  %9 = load i8, ptr %8, align 1, !tbaa !3
  %.not.i = icmp eq i8 %9, 0
  br i1 %.not.i, label %lv_text_utf8_get_byte_id.exit, label %10

10:                                               ; preds = %.lr.ph.i
  %11 = zext i8 %9 to i32
  %12 = icmp sgt i8 %9, -1
  br i1 %12, label %lv_text_utf8_size.exit.i, label %13

13:                                               ; preds = %10
  %14 = and i32 %11, 224
  %15 = icmp eq i32 %14, 192
  br i1 %15, label %lv_text_utf8_size.exit.i, label %16

16:                                               ; preds = %13
  %17 = and i32 %11, 240
  %18 = icmp eq i32 %17, 224
  br i1 %18, label %lv_text_utf8_size.exit.i, label %19

19:                                               ; preds = %16
  %20 = and i32 %11, 248
  %21 = icmp eq i32 %20, 240
  %..i.i = select i1 %21, i8 4, i8 0
  br label %lv_text_utf8_size.exit.i

lv_text_utf8_size.exit.i:                         ; preds = %19, %16, %13, %10
  %.0.i.i = phi i8 [ 1, %10 ], [ 2, %13 ], [ 3, %16 ], [ %..i.i, %19 ]
  %narrow.i = tail call i8 @llvm.umax.i8(i8 %.0.i.i, i8 1)
  %22 = zext nneg i8 %narrow.i to i32
  %23 = add i32 %.01012.i, %22
  %24 = add nuw i32 %.013.i, 1
  %exitcond.not.i = icmp eq i32 %24, %1
  br i1 %exitcond.not.i, label %lv_text_utf8_get_byte_id.exit, label %.lr.ph.i, !llvm.loop !11

lv_text_utf8_get_byte_id.exit:                    ; preds = %.lr.ph.i, %lv_text_utf8_size.exit.i, %5
  %.010.lcssa.i = phi i32 [ 0, %5 ], [ %.01012.i, %.lr.ph.i ], [ %23, %lv_text_utf8_size.exit.i ]
  %25 = zext i32 %.010.lcssa.i to i64
  %26 = getelementptr inbounds nuw i8, ptr %0, i64 %25
  %.not16.i18 = icmp eq i32 %2, 0
  br i1 %.not16.i18, label %lv_text_utf8_get_byte_id.exit29, label %.lr.ph.i19

.lr.ph.i19:                                       ; preds = %lv_text_utf8_get_byte_id.exit, %lv_text_utf8_size.exit.i24
  %.013.i20 = phi i32 [ %44, %lv_text_utf8_size.exit.i24 ], [ 0, %lv_text_utf8_get_byte_id.exit ]
  %.01012.i21 = phi i32 [ %43, %lv_text_utf8_size.exit.i24 ], [ 0, %lv_text_utf8_get_byte_id.exit ]
  %27 = zext i32 %.01012.i21 to i64
  %28 = getelementptr inbounds nuw i8, ptr %26, i64 %27
  %29 = load i8, ptr %28, align 1, !tbaa !3
  %.not.i22 = icmp eq i8 %29, 0
  br i1 %.not.i22, label %lv_text_utf8_get_byte_id.exit29, label %30

30:                                               ; preds = %.lr.ph.i19
  %31 = zext i8 %29 to i32
  %32 = icmp sgt i8 %29, -1
  br i1 %32, label %lv_text_utf8_size.exit.i24, label %33

33:                                               ; preds = %30
  %34 = and i32 %31, 224
  %35 = icmp eq i32 %34, 192
  br i1 %35, label %lv_text_utf8_size.exit.i24, label %36

36:                                               ; preds = %33
  %37 = and i32 %31, 240
  %38 = icmp eq i32 %37, 224
  br i1 %38, label %lv_text_utf8_size.exit.i24, label %39

39:                                               ; preds = %36
  %40 = and i32 %31, 248
  %41 = icmp eq i32 %40, 240
  %..i.i23 = select i1 %41, i8 4, i8 0
  br label %lv_text_utf8_size.exit.i24

lv_text_utf8_size.exit.i24:                       ; preds = %39, %36, %33, %30
  %.0.i.i25 = phi i8 [ 1, %30 ], [ 2, %33 ], [ 3, %36 ], [ %..i.i23, %39 ]
  %narrow.i26 = tail call i8 @llvm.umax.i8(i8 %.0.i.i25, i8 1)
  %42 = zext nneg i8 %narrow.i26 to i32
  %43 = add i32 %.01012.i21, %42
  %44 = add nuw i32 %.013.i20, 1
  %exitcond.not.i27 = icmp eq i32 %44, %2
  br i1 %exitcond.not.i27, label %lv_text_utf8_get_byte_id.exit29, label %.lr.ph.i19, !llvm.loop !11

lv_text_utf8_get_byte_id.exit29:                  ; preds = %.lr.ph.i19, %lv_text_utf8_size.exit.i24, %lv_text_utf8_get_byte_id.exit
  %.010.lcssa.i28 = phi i32 [ 0, %lv_text_utf8_get_byte_id.exit ], [ %.01012.i21, %.lr.ph.i19 ], [ %43, %lv_text_utf8_size.exit.i24 ]
  %45 = zext i32 %.010.lcssa.i28 to i64
  %46 = sub i64 %6, %45
  %.not30 = icmp ult i64 %46, %25
  br i1 %.not30, label %.loopexit, label %.lr.ph

.lr.ph:                                           ; preds = %lv_text_utf8_get_byte_id.exit29, %.lr.ph
  %47 = phi i64 [ %54, %.lr.ph ], [ %25, %lv_text_utf8_get_byte_id.exit29 ]
  %.031 = phi i32 [ %53, %.lr.ph ], [ %.010.lcssa.i, %lv_text_utf8_get_byte_id.exit29 ]
  %48 = add i32 %.031, %.010.lcssa.i28
  %49 = zext i32 %48 to i64
  %50 = getelementptr inbounds nuw i8, ptr %0, i64 %49
  %51 = load i8, ptr %50, align 1, !tbaa !3
  %52 = getelementptr inbounds nuw i8, ptr %0, i64 %47
  store i8 %51, ptr %52, align 1, !tbaa !3
  %53 = add i32 %.031, 1
  %54 = zext i32 %53 to i64
  %.not = icmp ult i64 %46, %54
  br i1 %.not, label %.loopexit, label %.lr.ph, !llvm.loop !24

.loopexit:                                        ; preds = %.lr.ph, %lv_text_utf8_get_byte_id.exit29, %3
  ret void
}